; ModuleID = '/home/xxx/project/paper7/dataset/10_0_0/test/tensorflow-v0/tensorflow-v0_1374_temp.bc'
source_filename = "/private/var/tmp/_bazel_alicej/3199bd51534d8a6b34bddaa1def27039/external/protobuf_archive/src/google/protobuf/compiler/main.cc"
target datalayout = "e-m:o-p270:32:32-p271:32:32-p272:64:64-i64:64-i128:128-f80:128-n8:16:32:64-S128"
target triple = "x86_64-apple-ios11.2.0"

%"class.google::protobuf::compiler::CommandLineInterface" = type <{ %"class.std::__1::basic_string", %"class.std::__1::basic_string", %"class.std::__1::map", %"class.std::__1::map", %"class.std::__1::map.7", %"class.std::__1::map.7", %"class.std::__1::basic_string", %"class.std::__1::map.7", i32, i32, i32, [4 x i8], %"class.std::__1::vector", %"class.std::__1::vector.20", %"class.std::__1::set", i8, [7 x i8], %"class.std::__1::basic_string", %"class.std::__1::vector.33", %"class.std::__1::basic_string", %"class.std::__1::vector.20", %"class.std::__1::basic_string", %"class.std::__1::basic_string", %"class.std::__1::basic_string", i8, i8, i8, [5 x i8] }>
%"class.std::__1::map" = type { %"class.std::__1::__tree" }
%"class.std::__1::__tree" = type { ptr, %"class.std::__1::__compressed_pair.1", %"class.std::__1::__compressed_pair.5" }
%"class.std::__1::__compressed_pair.1" = type { %"class.std::__1::__libcpp_compressed_pair_imp.2" }
%"class.std::__1::__libcpp_compressed_pair_imp.2" = type { %"class.std::__1::__tree_end_node" }
%"class.std::__1::__tree_end_node" = type { ptr }
%"class.std::__1::__compressed_pair.5" = type { %"class.std::__1::__libcpp_compressed_pair_imp.6" }
%"class.std::__1::__libcpp_compressed_pair_imp.6" = type { i64 }
%"class.std::__1::map.7" = type { %"class.std::__1::__tree.8" }
%"class.std::__1::__tree.8" = type { ptr, %"class.std::__1::__compressed_pair.9", %"class.std::__1::__compressed_pair.13" }
%"class.std::__1::__compressed_pair.9" = type { %"class.std::__1::__libcpp_compressed_pair_imp.10" }
%"class.std::__1::__libcpp_compressed_pair_imp.10" = type { %"class.std::__1::__tree_end_node" }
%"class.std::__1::__compressed_pair.13" = type { %"class.std::__1::__libcpp_compressed_pair_imp.14" }
%"class.std::__1::__libcpp_compressed_pair_imp.14" = type { i64 }
%"class.std::__1::vector" = type { %"class.std::__1::__vector_base" }
%"class.std::__1::__vector_base" = type { ptr, ptr, %"class.std::__1::__compressed_pair.16" }
%"class.std::__1::__compressed_pair.16" = type { %"class.std::__1::__libcpp_compressed_pair_imp.17" }
%"class.std::__1::__libcpp_compressed_pair_imp.17" = type { ptr }
%"class.std::__1::set" = type { %"class.std::__1::__tree.26" }
%"class.std::__1::__tree.26" = type { ptr, %"class.std::__1::__compressed_pair.27", %"class.std::__1::__compressed_pair.31" }
%"class.std::__1::__compressed_pair.27" = type { %"class.std::__1::__libcpp_compressed_pair_imp.28" }
%"class.std::__1::__libcpp_compressed_pair_imp.28" = type { %"class.std::__1::__tree_end_node" }
%"class.std::__1::__compressed_pair.31" = type { %"class.std::__1::__libcpp_compressed_pair_imp.32" }
%"class.std::__1::__libcpp_compressed_pair_imp.32" = type { i64 }
%"class.std::__1::vector.33" = type { %"class.std::__1::__vector_base.34" }
%"class.std::__1::__vector_base.34" = type { ptr, ptr, %"class.std::__1::__compressed_pair.35" }
%"class.std::__1::__compressed_pair.35" = type { %"class.std::__1::__libcpp_compressed_pair_imp.36" }
%"class.std::__1::__libcpp_compressed_pair_imp.36" = type { ptr }
%"class.std::__1::vector.20" = type { %"class.std::__1::__vector_base.21" }
%"class.std::__1::__vector_base.21" = type { ptr, ptr, %"class.std::__1::__compressed_pair.22" }
%"class.std::__1::__compressed_pair.22" = type { %"class.std::__1::__libcpp_compressed_pair_imp.23" }
%"class.std::__1::__libcpp_compressed_pair_imp.23" = type { ptr }
%"class.std::__1::basic_string" = type { %"class.std::__1::__compressed_pair" }
%"class.std::__1::__compressed_pair" = type { %"class.std::__1::__libcpp_compressed_pair_imp" }
%"class.std::__1::__libcpp_compressed_pair_imp" = type { %"struct.std::__1::basic_string<char, std::__1::char_traits<char>, std::__1::allocator<char> >::__rep" }
%"struct.std::__1::basic_string<char, std::__1::char_traits<char>, std::__1::allocator<char> >::__rep" = type { %union.anon }
%union.anon = type { %"struct.std::__1::basic_string<char, std::__1::char_traits<char>, std::__1::allocator<char> >::__long" }
%"struct.std::__1::basic_string<char, std::__1::char_traits<char>, std::__1::allocator<char> >::__long" = type { i64, i64, ptr }
%"class.google::protobuf::compiler::cpp::CppGenerator" = type { %"class.google::protobuf::compiler::CodeGenerator" }
%"class.google::protobuf::compiler::CodeGenerator" = type { ptr }
%"class.google::protobuf::compiler::java::JavaGenerator" = type { %"class.google::protobuf::compiler::CodeGenerator" }
%"class.google::protobuf::compiler::python::Generator" = type { %"class.google::protobuf::compiler::CodeGenerator", %"class.google::protobuf::internal::Mutex", ptr, %"class.std::__1::basic_string", ptr }
%"class.google::protobuf::internal::Mutex" = type { ptr }
%"class.google::protobuf::compiler::javanano::JavaNanoGenerator" = type { %"class.google::protobuf::compiler::CodeGenerator" }
%"class.google::protobuf::compiler::php::Generator" = type { %"class.google::protobuf::compiler::CodeGenerator" }
%"class.google::protobuf::compiler::ruby::Generator" = type { %"class.google::protobuf::compiler::CodeGenerator" }
%"class.google::protobuf::compiler::csharp::Generator" = type { %"class.google::protobuf::compiler::CodeGenerator" }
%"class.google::protobuf::compiler::objectivec::ObjectiveCGenerator" = type { %"class.google::protobuf::compiler::CodeGenerator" }
%"class.google::protobuf::compiler::js::Generator" = type { %"class.google::protobuf::compiler::CodeGenerator" }
%"struct.std::__1::basic_string<char, std::__1::char_traits<char>, std::__1::allocator<char> >::__short" = type { %union.anon.0, [23 x i8] }
%union.anon.0 = type { i8 }

@.str = private unnamed_addr constant [8 x i8] c"protoc-\00", align 1
@.str.1 = private unnamed_addr constant [10 x i8] c"--cpp_out\00", align 1
@.str.2 = private unnamed_addr constant [10 x i8] c"--cpp_opt\00", align 1
@.str.3 = private unnamed_addr constant [32 x i8] c"Generate C++ header and source.\00", align 1
@.str.4 = private unnamed_addr constant [11 x i8] c"--java_out\00", align 1
@.str.5 = private unnamed_addr constant [11 x i8] c"--java_opt\00", align 1
@.str.6 = private unnamed_addr constant [27 x i8] c"Generate Java source file.\00", align 1
@.str.7 = private unnamed_addr constant [13 x i8] c"--python_out\00", align 1
@.str.8 = private unnamed_addr constant [29 x i8] c"Generate Python source file.\00", align 1
@.str.9 = private unnamed_addr constant [15 x i8] c"--javanano_out\00", align 1
@.str.10 = private unnamed_addr constant [32 x i8] c"Generate Java Nano source file.\00", align 1
@.str.11 = private unnamed_addr constant [10 x i8] c"--php_out\00", align 1
@.str.12 = private unnamed_addr constant [26 x i8] c"Generate PHP source file.\00", align 1
@.str.13 = private unnamed_addr constant [11 x i8] c"--ruby_out\00", align 1
@.str.14 = private unnamed_addr constant [27 x i8] c"Generate Ruby source file.\00", align 1
@.str.15 = private unnamed_addr constant [13 x i8] c"--csharp_out\00", align 1
@.str.16 = private unnamed_addr constant [13 x i8] c"--csharp_opt\00", align 1
@.str.17 = private unnamed_addr constant [25 x i8] c"Generate C# source file.\00", align 1
@.str.18 = private unnamed_addr constant [11 x i8] c"--objc_out\00", align 1
@.str.19 = private unnamed_addr constant [11 x i8] c"--objc_opt\00", align 1
@.str.20 = private unnamed_addr constant [40 x i8] c"Generate Objective C header and source.\00", align 1
@.str.22 = private unnamed_addr constant [28 x i8] c"Generate JavaScript source.\00", align 1
@_ZTVN6google8protobuf8compiler3php9GeneratorE = external unnamed_addr constant { [7 x ptr] }
@_ZTVN6google8protobuf8compiler4ruby9GeneratorE = external unnamed_addr constant { [7 x ptr] }
@_ZTVN6google8protobuf8compiler6csharp9GeneratorE = external unnamed_addr constant { [7 x ptr] }
@_ZTVN6google8protobuf8compiler2js9GeneratorE = external unnamed_addr constant { [7 x ptr] }

define i32 @main(i32 %0, ptr %1) local_unnamed_addr personality ptr @__gxx_personality_v0 {
  %3 = alloca %"class.google::protobuf::compiler::CommandLineInterface", align 8
  %4 = alloca %"class.std::__1::basic_string", align 8
  %5 = alloca %"class.google::protobuf::compiler::cpp::CppGenerator", align 8
  %6 = alloca %"class.std::__1::basic_string", align 8
  %7 = alloca %"class.std::__1::basic_string", align 8
  %8 = alloca %"class.std::__1::basic_string", align 16
  %9 = alloca %"class.google::protobuf::compiler::java::JavaGenerator", align 8
  %10 = alloca %"class.std::__1::basic_string", align 8
  %11 = alloca %"class.std::__1::basic_string", align 8
  %12 = alloca %"class.std::__1::basic_string", align 16
  %13 = alloca %"class.google::protobuf::compiler::python::Generator", align 8
  %14 = alloca %"class.std::__1::basic_string", align 8
  %15 = alloca %"class.std::__1::basic_string", align 16
  %16 = alloca %"class.google::protobuf::compiler::javanano::JavaNanoGenerator", align 8
  %17 = alloca %"class.std::__1::basic_string", align 8
  %18 = alloca %"class.std::__1::basic_string", align 16
  %19 = alloca %"class.google::protobuf::compiler::php::Generator", align 8
  %20 = alloca %"class.std::__1::basic_string", align 8
  %21 = alloca %"class.std::__1::basic_string", align 16
  %22 = alloca %"class.google::protobuf::compiler::ruby::Generator", align 8
  %23 = alloca %"class.std::__1::basic_string", align 8
  %24 = alloca %"class.std::__1::basic_string", align 16
  %25 = alloca %"class.google::protobuf::compiler::csharp::Generator", align 8
  %26 = alloca %"class.std::__1::basic_string", align 8
  %27 = alloca %"class.std::__1::basic_string", align 8
  %28 = alloca %"class.std::__1::basic_string", align 16
  %29 = alloca %"class.google::protobuf::compiler::objectivec::ObjectiveCGenerator", align 8
  %30 = alloca %"class.std::__1::basic_string", align 8
  %31 = alloca %"class.std::__1::basic_string", align 8
  %32 = alloca %"class.std::__1::basic_string", align 16
  %33 = alloca %"class.google::protobuf::compiler::js::Generator", align 8
  %34 = alloca %"class.std::__1::basic_string", align 8
  %35 = alloca %"class.std::__1::basic_string", align 16
  %36 = bitcast ptr %3 to ptr
  call void @llvm.lifetime.start.p0(i64 464, ptr nonnull %36)
  call void @_ZN6google8protobuf8compiler20CommandLineInterfaceC1Ev(ptr nonnull %3)
  %37 = bitcast ptr %4 to ptr
  call void @llvm.lifetime.start.p0(i64 24, ptr nonnull %37)
  call void @llvm.memset.p0.i64(ptr align 8 %37, i8 0, i64 24, i1 false)
  store i8 14, ptr %37, align 8, !tbaa !2
  %38 = bitcast ptr %4 to ptr
  %39 = getelementptr inbounds %"struct.std::__1::basic_string<char, std::__1::char_traits<char>, std::__1::allocator<char> >::__short", ptr %38, i64 0, i32 1, i64 0
  call void @llvm.memcpy.p0.p0.i64(ptr align 1 %39, ptr align 1 @.str, i64 7, i1 false)
  %40 = getelementptr inbounds %"class.std::__1::basic_string", ptr %4, i64 0, i32 0, i32 0, i32 0, i32 0, i32 0, i32 1
  %41 = bitcast ptr %40 to ptr
  store i8 0, ptr %41, align 8, !tbaa !2
  invoke void @_ZN6google8protobuf8compiler20CommandLineInterface12AllowPluginsERKNSt3__112basic_stringIcNS3_11char_traitsIcEENS3_9allocatorIcEEEE(ptr nonnull %3, ptr nonnull dereferenceable(24) %4)
          to label %42 unwind label %342

42:                                               ; preds = %2
  %43 = load i8, ptr %37, align 8, !tbaa !2
  %44 = and i8 %43, 1
  %45 = icmp eq i8 %44, 0
  br i1 %45, label %49, label %46

46:                                               ; preds = %42
  %47 = getelementptr inbounds %"class.std::__1::basic_string", ptr %4, i64 0, i32 0, i32 0, i32 0, i32 0, i32 0, i32 2
  %48 = load ptr, ptr %47, align 8, !tbaa !5
  call void @_ZdlPv(ptr %48)
  br label %49

49:                                               ; preds = %46, %42
  call void @llvm.lifetime.end.p0(i64 24, ptr nonnull %37)
  %50 = bitcast ptr %5 to ptr
  call void @llvm.lifetime.start.p0(i64 8, ptr nonnull %50)
  invoke void @_ZN6google8protobuf8compiler3cpp12CppGeneratorC1Ev(ptr nonnull %5)
          to label %51 unwind label %353

51:                                               ; preds = %49
  %52 = bitcast ptr %6 to ptr
  call void @llvm.lifetime.start.p0(i64 24, ptr nonnull %52)
  call void @llvm.memset.p0.i64(ptr align 8 %52, i8 0, i64 24, i1 false)
  store i8 18, ptr %52, align 8, !tbaa !2
  %53 = bitcast ptr %6 to ptr
  %54 = getelementptr inbounds %"struct.std::__1::basic_string<char, std::__1::char_traits<char>, std::__1::allocator<char> >::__short", ptr %53, i64 0, i32 1, i64 0
  call void @llvm.memcpy.p0.p0.i64(ptr align 1 %54, ptr align 1 @.str.1, i64 9, i1 false)
  %55 = getelementptr inbounds %"struct.std::__1::basic_string<char, std::__1::char_traits<char>, std::__1::allocator<char> >::__short", ptr %53, i64 0, i32 1, i64 9
  store i8 0, ptr %55, align 1, !tbaa !2
  %56 = bitcast ptr %7 to ptr
  call void @llvm.lifetime.start.p0(i64 24, ptr nonnull %56)
  call void @llvm.memset.p0.i64(ptr align 8 %56, i8 0, i64 24, i1 false)
  store i8 18, ptr %56, align 8, !tbaa !2
  %57 = bitcast ptr %7 to ptr
  %58 = getelementptr inbounds %"struct.std::__1::basic_string<char, std::__1::char_traits<char>, std::__1::allocator<char> >::__short", ptr %57, i64 0, i32 1, i64 0
  call void @llvm.memcpy.p0.p0.i64(ptr align 1 %58, ptr align 1 @.str.2, i64 9, i1 false)
  %59 = getelementptr inbounds %"struct.std::__1::basic_string<char, std::__1::char_traits<char>, std::__1::allocator<char> >::__short", ptr %57, i64 0, i32 1, i64 9
  store i8 0, ptr %59, align 1, !tbaa !2
  %60 = bitcast ptr %8 to ptr
  call void @llvm.lifetime.start.p0(i64 24, ptr nonnull %60)
  call void @llvm.memset.p0.i64(ptr align 16 %60, i8 0, i64 24, i1 false)
  %61 = invoke ptr @_Znwm(i64 32)
          to label %62 unwind label %357

62:                                               ; preds = %51
  %63 = getelementptr inbounds %"class.std::__1::basic_string", ptr %8, i64 0, i32 0, i32 0, i32 0, i32 0, i32 0, i32 2
  store ptr %61, ptr %63, align 16, !tbaa !5
  %64 = bitcast ptr %8 to ptr
  store <2 x i64> <i64 33, i64 31>, ptr %64, align 16, !tbaa !9
  call void @llvm.memcpy.p0.p0.i64(ptr align 1 %61, ptr align 1 @.str.3, i64 31, i1 false)
  %65 = getelementptr inbounds i8, ptr %61, i64 31
  store i8 0, ptr %65, align 1, !tbaa !2
  %66 = getelementptr inbounds %"class.google::protobuf::compiler::cpp::CppGenerator", ptr %5, i64 0, i32 0
  invoke void @_ZN6google8protobuf8compiler20CommandLineInterface17RegisterGeneratorERKNSt3__112basic_stringIcNS3_11char_traitsIcEENS3_9allocatorIcEEEESB_PNS1_13CodeGeneratorESB_(ptr nonnull %3, ptr nonnull dereferenceable(24) %6, ptr nonnull dereferenceable(24) %7, ptr nonnull %66, ptr nonnull dereferenceable(24) %8)
          to label %67 unwind label %361

67:                                               ; preds = %62
  %68 = load i8, ptr %60, align 16, !tbaa !2
  %69 = and i8 %68, 1
  %70 = icmp eq i8 %69, 0
  br i1 %70, label %73, label %71

71:                                               ; preds = %67
  %72 = load ptr, ptr %63, align 16, !tbaa !5
  call void @_ZdlPv(ptr %72)
  br label %73

73:                                               ; preds = %71, %67
  call void @llvm.lifetime.end.p0(i64 24, ptr nonnull %60)
  %74 = load i8, ptr %56, align 8, !tbaa !2
  %75 = and i8 %74, 1
  %76 = icmp eq i8 %75, 0
  br i1 %76, label %80, label %77

77:                                               ; preds = %73
  %78 = getelementptr inbounds %"class.std::__1::basic_string", ptr %7, i64 0, i32 0, i32 0, i32 0, i32 0, i32 0, i32 2
  %79 = load ptr, ptr %78, align 8, !tbaa !5
  call void @_ZdlPv(ptr %79)
  br label %80

80:                                               ; preds = %77, %73
  call void @llvm.lifetime.end.p0(i64 24, ptr nonnull %56)
  %81 = load i8, ptr %52, align 8, !tbaa !2
  %82 = and i8 %81, 1
  %83 = icmp eq i8 %82, 0
  br i1 %83, label %87, label %84

84:                                               ; preds = %80
  %85 = getelementptr inbounds %"class.std::__1::basic_string", ptr %6, i64 0, i32 0, i32 0, i32 0, i32 0, i32 0, i32 2
  %86 = load ptr, ptr %85, align 8, !tbaa !5
  call void @_ZdlPv(ptr %86)
  br label %87

87:                                               ; preds = %84, %80
  call void @llvm.lifetime.end.p0(i64 24, ptr nonnull %52)
  %88 = bitcast ptr %9 to ptr
  call void @llvm.lifetime.start.p0(i64 8, ptr nonnull %88)
  invoke void @_ZN6google8protobuf8compiler4java13JavaGeneratorC1Ev(ptr nonnull %9)
          to label %89 unwind label %387

89:                                               ; preds = %87
  %90 = bitcast ptr %10 to ptr
  call void @llvm.lifetime.start.p0(i64 24, ptr nonnull %90)
  call void @llvm.memset.p0.i64(ptr align 8 %90, i8 0, i64 24, i1 false)
  store i8 20, ptr %90, align 8, !tbaa !2
  %91 = bitcast ptr %10 to ptr
  %92 = getelementptr inbounds %"struct.std::__1::basic_string<char, std::__1::char_traits<char>, std::__1::allocator<char> >::__short", ptr %91, i64 0, i32 1, i64 0
  call void @llvm.memcpy.p0.p0.i64(ptr align 1 %92, ptr align 1 @.str.4, i64 10, i1 false)
  %93 = getelementptr inbounds %"struct.std::__1::basic_string<char, std::__1::char_traits<char>, std::__1::allocator<char> >::__short", ptr %91, i64 0, i32 1, i64 10
  store i8 0, ptr %93, align 1, !tbaa !2
  %94 = bitcast ptr %11 to ptr
  call void @llvm.lifetime.start.p0(i64 24, ptr nonnull %94)
  call void @llvm.memset.p0.i64(ptr align 8 %94, i8 0, i64 24, i1 false)
  store i8 20, ptr %94, align 8, !tbaa !2
  %95 = bitcast ptr %11 to ptr
  %96 = getelementptr inbounds %"struct.std::__1::basic_string<char, std::__1::char_traits<char>, std::__1::allocator<char> >::__short", ptr %95, i64 0, i32 1, i64 0
  call void @llvm.memcpy.p0.p0.i64(ptr align 1 %96, ptr align 1 @.str.5, i64 10, i1 false)
  %97 = getelementptr inbounds %"struct.std::__1::basic_string<char, std::__1::char_traits<char>, std::__1::allocator<char> >::__short", ptr %95, i64 0, i32 1, i64 10
  store i8 0, ptr %97, align 1, !tbaa !2
  %98 = bitcast ptr %12 to ptr
  call void @llvm.lifetime.start.p0(i64 24, ptr nonnull %98)
  call void @llvm.memset.p0.i64(ptr align 16 %98, i8 0, i64 24, i1 false)
  %99 = invoke ptr @_Znwm(i64 32)
          to label %100 unwind label %391

100:                                              ; preds = %89
  %101 = getelementptr inbounds %"class.std::__1::basic_string", ptr %12, i64 0, i32 0, i32 0, i32 0, i32 0, i32 0, i32 2
  store ptr %99, ptr %101, align 16, !tbaa !5
  %102 = bitcast ptr %12 to ptr
  store <2 x i64> <i64 33, i64 26>, ptr %102, align 16, !tbaa !9
  call void @llvm.memcpy.p0.p0.i64(ptr align 1 %99, ptr align 1 @.str.6, i64 26, i1 false)
  %103 = getelementptr inbounds i8, ptr %99, i64 26
  store i8 0, ptr %103, align 1, !tbaa !2
  %104 = getelementptr inbounds %"class.google::protobuf::compiler::java::JavaGenerator", ptr %9, i64 0, i32 0
  invoke void @_ZN6google8protobuf8compiler20CommandLineInterface17RegisterGeneratorERKNSt3__112basic_stringIcNS3_11char_traitsIcEENS3_9allocatorIcEEEESB_PNS1_13CodeGeneratorESB_(ptr nonnull %3, ptr nonnull dereferenceable(24) %10, ptr nonnull dereferenceable(24) %11, ptr nonnull %104, ptr nonnull dereferenceable(24) %12)
          to label %105 unwind label %395

105:                                              ; preds = %100
  %106 = load i8, ptr %98, align 16, !tbaa !2
  %107 = and i8 %106, 1
  %108 = icmp eq i8 %107, 0
  br i1 %108, label %111, label %109

109:                                              ; preds = %105
  %110 = load ptr, ptr %101, align 16, !tbaa !5
  call void @_ZdlPv(ptr %110)
  br label %111

111:                                              ; preds = %109, %105
  call void @llvm.lifetime.end.p0(i64 24, ptr nonnull %98)
  %112 = load i8, ptr %94, align 8, !tbaa !2
  %113 = and i8 %112, 1
  %114 = icmp eq i8 %113, 0
  br i1 %114, label %118, label %115

115:                                              ; preds = %111
  %116 = getelementptr inbounds %"class.std::__1::basic_string", ptr %11, i64 0, i32 0, i32 0, i32 0, i32 0, i32 0, i32 2
  %117 = load ptr, ptr %116, align 8, !tbaa !5
  call void @_ZdlPv(ptr %117)
  br label %118

118:                                              ; preds = %115, %111
  call void @llvm.lifetime.end.p0(i64 24, ptr nonnull %94)
  %119 = load i8, ptr %90, align 8, !tbaa !2
  %120 = and i8 %119, 1
  %121 = icmp eq i8 %120, 0
  br i1 %121, label %125, label %122

122:                                              ; preds = %118
  %123 = getelementptr inbounds %"class.std::__1::basic_string", ptr %10, i64 0, i32 0, i32 0, i32 0, i32 0, i32 0, i32 2
  %124 = load ptr, ptr %123, align 8, !tbaa !5
  call void @_ZdlPv(ptr %124)
  br label %125

125:                                              ; preds = %122, %118
  call void @llvm.lifetime.end.p0(i64 24, ptr nonnull %90)
  %126 = bitcast ptr %13 to ptr
  call void @llvm.lifetime.start.p0(i64 56, ptr nonnull %126)
  invoke void @_ZN6google8protobuf8compiler6python9GeneratorC1Ev(ptr nonnull %13)
          to label %127 unwind label %421

127:                                              ; preds = %125
  %128 = bitcast ptr %14 to ptr
  call void @llvm.lifetime.start.p0(i64 24, ptr nonnull %128)
  call void @llvm.memset.p0.i64(ptr align 8 %128, i8 0, i64 24, i1 false)
  store i8 24, ptr %128, align 8, !tbaa !2
  %129 = bitcast ptr %14 to ptr
  %130 = getelementptr inbounds %"struct.std::__1::basic_string<char, std::__1::char_traits<char>, std::__1::allocator<char> >::__short", ptr %129, i64 0, i32 1, i64 0
  call void @llvm.memcpy.p0.p0.i64(ptr align 1 %130, ptr align 1 @.str.7, i64 12, i1 false)
  %131 = getelementptr inbounds %"struct.std::__1::basic_string<char, std::__1::char_traits<char>, std::__1::allocator<char> >::__short", ptr %129, i64 0, i32 1, i64 12
  store i8 0, ptr %131, align 1, !tbaa !2
  %132 = bitcast ptr %15 to ptr
  call void @llvm.lifetime.start.p0(i64 24, ptr nonnull %132)
  call void @llvm.memset.p0.i64(ptr align 16 %132, i8 0, i64 24, i1 false)
  %133 = invoke ptr @_Znwm(i64 32)
          to label %134 unwind label %425

134:                                              ; preds = %127
  %135 = getelementptr inbounds %"class.std::__1::basic_string", ptr %15, i64 0, i32 0, i32 0, i32 0, i32 0, i32 0, i32 2
  store ptr %133, ptr %135, align 16, !tbaa !5
  %136 = bitcast ptr %15 to ptr
  store <2 x i64> <i64 33, i64 28>, ptr %136, align 16, !tbaa !9
  call void @llvm.memcpy.p0.p0.i64(ptr align 1 %133, ptr align 1 @.str.8, i64 28, i1 false)
  %137 = getelementptr inbounds i8, ptr %133, i64 28
  store i8 0, ptr %137, align 1, !tbaa !2
  %138 = getelementptr inbounds %"class.google::protobuf::compiler::python::Generator", ptr %13, i64 0, i32 0
  invoke void @_ZN6google8protobuf8compiler20CommandLineInterface17RegisterGeneratorERKNSt3__112basic_stringIcNS3_11char_traitsIcEENS3_9allocatorIcEEEEPNS1_13CodeGeneratorESB_(ptr nonnull %3, ptr nonnull dereferenceable(24) %14, ptr nonnull %138, ptr nonnull dereferenceable(24) %15)
          to label %139 unwind label %429

139:                                              ; preds = %134
  %140 = load i8, ptr %132, align 16, !tbaa !2
  %141 = and i8 %140, 1
  %142 = icmp eq i8 %141, 0
  br i1 %142, label %145, label %143

143:                                              ; preds = %139
  %144 = load ptr, ptr %135, align 16, !tbaa !5
  call void @_ZdlPv(ptr %144)
  br label %145

145:                                              ; preds = %143, %139
  call void @llvm.lifetime.end.p0(i64 24, ptr nonnull %132)
  %146 = load i8, ptr %128, align 8, !tbaa !2
  %147 = and i8 %146, 1
  %148 = icmp eq i8 %147, 0
  br i1 %148, label %152, label %149

149:                                              ; preds = %145
  %150 = getelementptr inbounds %"class.std::__1::basic_string", ptr %14, i64 0, i32 0, i32 0, i32 0, i32 0, i32 0, i32 2
  %151 = load ptr, ptr %150, align 8, !tbaa !5
  call void @_ZdlPv(ptr %151)
  br label %152

152:                                              ; preds = %149, %145
  call void @llvm.lifetime.end.p0(i64 24, ptr nonnull %128)
  %153 = bitcast ptr %16 to ptr
  call void @llvm.lifetime.start.p0(i64 8, ptr nonnull %153)
  invoke void @_ZN6google8protobuf8compiler8javanano17JavaNanoGeneratorC1Ev(ptr nonnull %16)
          to label %154 unwind label %448

154:                                              ; preds = %152
  %155 = bitcast ptr %17 to ptr
  call void @llvm.lifetime.start.p0(i64 24, ptr nonnull %155)
  %156 = getelementptr inbounds %"class.std::__1::basic_string", ptr %17, i64 0, i32 0, i32 0, i32 0, i32 0, i32 0, i32 2
  %157 = bitcast ptr %156 to ptr
  store i64 0, ptr %157, align 8
  store i8 28, ptr %155, align 8, !tbaa !2
  %158 = bitcast ptr %17 to ptr
  %159 = getelementptr inbounds %"struct.std::__1::basic_string<char, std::__1::char_traits<char>, std::__1::allocator<char> >::__short", ptr %158, i64 0, i32 1, i64 0
  call void @llvm.memcpy.p0.p0.i64(ptr align 1 %159, ptr align 1 @.str.9, i64 14, i1 false)
  %160 = getelementptr inbounds %"struct.std::__1::basic_string<char, std::__1::char_traits<char>, std::__1::allocator<char> >::__short", ptr %158, i64 0, i32 1, i64 14
  store i8 0, ptr %160, align 1, !tbaa !2
  %161 = bitcast ptr %18 to ptr
  call void @llvm.lifetime.start.p0(i64 24, ptr nonnull %161)
  call void @llvm.memset.p0.i64(ptr align 16 %161, i8 0, i64 24, i1 false)
  %162 = invoke ptr @_Znwm(i64 32)
          to label %163 unwind label %452

163:                                              ; preds = %154
  %164 = getelementptr inbounds %"class.std::__1::basic_string", ptr %18, i64 0, i32 0, i32 0, i32 0, i32 0, i32 0, i32 2
  store ptr %162, ptr %164, align 16, !tbaa !5
  %165 = bitcast ptr %18 to ptr
  store <2 x i64> <i64 33, i64 31>, ptr %165, align 16, !tbaa !9
  call void @llvm.memcpy.p0.p0.i64(ptr align 1 %162, ptr align 1 @.str.10, i64 31, i1 false)
  %166 = getelementptr inbounds i8, ptr %162, i64 31
  store i8 0, ptr %166, align 1, !tbaa !2
  %167 = getelementptr inbounds %"class.google::protobuf::compiler::javanano::JavaNanoGenerator", ptr %16, i64 0, i32 0
  invoke void @_ZN6google8protobuf8compiler20CommandLineInterface17RegisterGeneratorERKNSt3__112basic_stringIcNS3_11char_traitsIcEENS3_9allocatorIcEEEEPNS1_13CodeGeneratorESB_(ptr nonnull %3, ptr nonnull dereferenceable(24) %17, ptr nonnull %167, ptr nonnull dereferenceable(24) %18)
          to label %168 unwind label %456

168:                                              ; preds = %163
  %169 = load i8, ptr %161, align 16, !tbaa !2
  %170 = and i8 %169, 1
  %171 = icmp eq i8 %170, 0
  br i1 %171, label %174, label %172

172:                                              ; preds = %168
  %173 = load ptr, ptr %164, align 16, !tbaa !5
  call void @_ZdlPv(ptr %173)
  br label %174

174:                                              ; preds = %172, %168
  call void @llvm.lifetime.end.p0(i64 24, ptr nonnull %161)
  %175 = load i8, ptr %155, align 8, !tbaa !2
  %176 = and i8 %175, 1
  %177 = icmp eq i8 %176, 0
  br i1 %177, label %181, label %178

178:                                              ; preds = %174
  %179 = getelementptr inbounds %"class.std::__1::basic_string", ptr %17, i64 0, i32 0, i32 0, i32 0, i32 0, i32 0, i32 2
  %180 = load ptr, ptr %179, align 8, !tbaa !5
  call void @_ZdlPv(ptr %180)
  br label %181

181:                                              ; preds = %178, %174
  call void @llvm.lifetime.end.p0(i64 24, ptr nonnull %155)
  %182 = bitcast ptr %19 to ptr
  call void @llvm.lifetime.start.p0(i64 8, ptr nonnull %182)
  %183 = getelementptr inbounds %"class.google::protobuf::compiler::php::Generator", ptr %19, i64 0, i32 0, i32 0
  store ptr getelementptr inbounds ({ [7 x ptr] }, ptr @_ZTVN6google8protobuf8compiler3php9GeneratorE, i64 0, inrange i32 0, i64 2), ptr %183, align 8, !tbaa !10
  %184 = bitcast ptr %20 to ptr
  call void @llvm.lifetime.start.p0(i64 24, ptr nonnull %184)
  call void @llvm.memset.p0.i64(ptr align 8 %184, i8 0, i64 24, i1 false)
  store i8 18, ptr %184, align 8, !tbaa !2
  %185 = bitcast ptr %20 to ptr
  %186 = getelementptr inbounds %"struct.std::__1::basic_string<char, std::__1::char_traits<char>, std::__1::allocator<char> >::__short", ptr %185, i64 0, i32 1, i64 0
  call void @llvm.memcpy.p0.p0.i64(ptr align 1 %186, ptr align 1 @.str.11, i64 9, i1 false)
  %187 = getelementptr inbounds %"struct.std::__1::basic_string<char, std::__1::char_traits<char>, std::__1::allocator<char> >::__short", ptr %185, i64 0, i32 1, i64 9
  store i8 0, ptr %187, align 1, !tbaa !2
  %188 = bitcast ptr %21 to ptr
  call void @llvm.lifetime.start.p0(i64 24, ptr nonnull %188)
  call void @llvm.memset.p0.i64(ptr align 16 %188, i8 0, i64 24, i1 false)
  %189 = invoke ptr @_Znwm(i64 32)
          to label %190 unwind label %475

190:                                              ; preds = %181
  %191 = getelementptr inbounds %"class.std::__1::basic_string", ptr %21, i64 0, i32 0, i32 0, i32 0, i32 0, i32 0, i32 2
  store ptr %189, ptr %191, align 16, !tbaa !5
  %192 = bitcast ptr %21 to ptr
  store <2 x i64> <i64 33, i64 25>, ptr %192, align 16, !tbaa !9
  call void @llvm.memcpy.p0.p0.i64(ptr align 1 %189, ptr align 1 @.str.12, i64 25, i1 false)
  %193 = getelementptr inbounds i8, ptr %189, i64 25
  store i8 0, ptr %193, align 1, !tbaa !2
  %194 = getelementptr inbounds %"class.google::protobuf::compiler::php::Generator", ptr %19, i64 0, i32 0
  invoke void @_ZN6google8protobuf8compiler20CommandLineInterface17RegisterGeneratorERKNSt3__112basic_stringIcNS3_11char_traitsIcEENS3_9allocatorIcEEEEPNS1_13CodeGeneratorESB_(ptr nonnull %3, ptr nonnull dereferenceable(24) %20, ptr nonnull %194, ptr nonnull dereferenceable(24) %21)
          to label %195 unwind label %479

195:                                              ; preds = %190
  %196 = load i8, ptr %188, align 16, !tbaa !2
  %197 = and i8 %196, 1
  %198 = icmp eq i8 %197, 0
  br i1 %198, label %201, label %199

199:                                              ; preds = %195
  %200 = load ptr, ptr %191, align 16, !tbaa !5
  call void @_ZdlPv(ptr %200)
  br label %201

201:                                              ; preds = %199, %195
  call void @llvm.lifetime.end.p0(i64 24, ptr nonnull %188)
  %202 = load i8, ptr %184, align 8, !tbaa !2
  %203 = and i8 %202, 1
  %204 = icmp eq i8 %203, 0
  br i1 %204, label %208, label %205

205:                                              ; preds = %201
  %206 = getelementptr inbounds %"class.std::__1::basic_string", ptr %20, i64 0, i32 0, i32 0, i32 0, i32 0, i32 0, i32 2
  %207 = load ptr, ptr %206, align 8, !tbaa !5
  call void @_ZdlPv(ptr %207)
  br label %208

208:                                              ; preds = %205, %201
  call void @llvm.lifetime.end.p0(i64 24, ptr nonnull %184)
  %209 = bitcast ptr %22 to ptr
  call void @llvm.lifetime.start.p0(i64 8, ptr nonnull %209)
  %210 = getelementptr inbounds %"class.google::protobuf::compiler::ruby::Generator", ptr %22, i64 0, i32 0, i32 0
  store ptr getelementptr inbounds ({ [7 x ptr] }, ptr @_ZTVN6google8protobuf8compiler4ruby9GeneratorE, i64 0, inrange i32 0, i64 2), ptr %210, align 8, !tbaa !10
  %211 = bitcast ptr %23 to ptr
  call void @llvm.lifetime.start.p0(i64 24, ptr nonnull %211)
  call void @llvm.memset.p0.i64(ptr align 8 %211, i8 0, i64 24, i1 false)
  store i8 20, ptr %211, align 8, !tbaa !2
  %212 = bitcast ptr %23 to ptr
  %213 = getelementptr inbounds %"struct.std::__1::basic_string<char, std::__1::char_traits<char>, std::__1::allocator<char> >::__short", ptr %212, i64 0, i32 1, i64 0
  call void @llvm.memcpy.p0.p0.i64(ptr align 1 %213, ptr align 1 @.str.13, i64 10, i1 false)
  %214 = getelementptr inbounds %"struct.std::__1::basic_string<char, std::__1::char_traits<char>, std::__1::allocator<char> >::__short", ptr %212, i64 0, i32 1, i64 10
  store i8 0, ptr %214, align 1, !tbaa !2
  %215 = bitcast ptr %24 to ptr
  call void @llvm.lifetime.start.p0(i64 24, ptr nonnull %215)
  call void @llvm.memset.p0.i64(ptr align 16 %215, i8 0, i64 24, i1 false)
  %216 = invoke ptr @_Znwm(i64 32)
          to label %217 unwind label %499

217:                                              ; preds = %208
  %218 = getelementptr inbounds %"class.std::__1::basic_string", ptr %24, i64 0, i32 0, i32 0, i32 0, i32 0, i32 0, i32 2
  store ptr %216, ptr %218, align 16, !tbaa !5
  %219 = bitcast ptr %24 to ptr
  store <2 x i64> <i64 33, i64 26>, ptr %219, align 16, !tbaa !9
  call void @llvm.memcpy.p0.p0.i64(ptr align 1 %216, ptr align 1 @.str.14, i64 26, i1 false)
  %220 = getelementptr inbounds i8, ptr %216, i64 26
  store i8 0, ptr %220, align 1, !tbaa !2
  %221 = getelementptr inbounds %"class.google::protobuf::compiler::ruby::Generator", ptr %22, i64 0, i32 0
  invoke void @_ZN6google8protobuf8compiler20CommandLineInterface17RegisterGeneratorERKNSt3__112basic_stringIcNS3_11char_traitsIcEENS3_9allocatorIcEEEEPNS1_13CodeGeneratorESB_(ptr nonnull %3, ptr nonnull dereferenceable(24) %23, ptr nonnull %221, ptr nonnull dereferenceable(24) %24)
          to label %222 unwind label %503

222:                                              ; preds = %217
  %223 = load i8, ptr %215, align 16, !tbaa !2
  %224 = and i8 %223, 1
  %225 = icmp eq i8 %224, 0
  br i1 %225, label %228, label %226

226:                                              ; preds = %222
  %227 = load ptr, ptr %218, align 16, !tbaa !5
  call void @_ZdlPv(ptr %227)
  br label %228

228:                                              ; preds = %226, %222
  call void @llvm.lifetime.end.p0(i64 24, ptr nonnull %215)
  %229 = load i8, ptr %211, align 8, !tbaa !2
  %230 = and i8 %229, 1
  %231 = icmp eq i8 %230, 0
  br i1 %231, label %235, label %232

232:                                              ; preds = %228
  %233 = getelementptr inbounds %"class.std::__1::basic_string", ptr %23, i64 0, i32 0, i32 0, i32 0, i32 0, i32 0, i32 2
  %234 = load ptr, ptr %233, align 8, !tbaa !5
  call void @_ZdlPv(ptr %234)
  br label %235

235:                                              ; preds = %232, %228
  call void @llvm.lifetime.end.p0(i64 24, ptr nonnull %211)
  %236 = bitcast ptr %25 to ptr
  call void @llvm.lifetime.start.p0(i64 8, ptr nonnull %236)
  %237 = getelementptr inbounds %"class.google::protobuf::compiler::csharp::Generator", ptr %25, i64 0, i32 0, i32 0
  store ptr getelementptr inbounds ({ [7 x ptr] }, ptr @_ZTVN6google8protobuf8compiler6csharp9GeneratorE, i64 0, inrange i32 0, i64 2), ptr %237, align 8, !tbaa !10
  %238 = bitcast ptr %26 to ptr
  call void @llvm.lifetime.start.p0(i64 24, ptr nonnull %238)
  call void @llvm.memset.p0.i64(ptr align 8 %238, i8 0, i64 24, i1 false)
  store i8 24, ptr %238, align 8, !tbaa !2
  %239 = bitcast ptr %26 to ptr
  %240 = getelementptr inbounds %"struct.std::__1::basic_string<char, std::__1::char_traits<char>, std::__1::allocator<char> >::__short", ptr %239, i64 0, i32 1, i64 0
  call void @llvm.memcpy.p0.p0.i64(ptr align 1 %240, ptr align 1 @.str.15, i64 12, i1 false)
  %241 = getelementptr inbounds %"struct.std::__1::basic_string<char, std::__1::char_traits<char>, std::__1::allocator<char> >::__short", ptr %239, i64 0, i32 1, i64 12
  store i8 0, ptr %241, align 1, !tbaa !2
  %242 = bitcast ptr %27 to ptr
  call void @llvm.lifetime.start.p0(i64 24, ptr nonnull %242)
  call void @llvm.memset.p0.i64(ptr align 8 %242, i8 0, i64 24, i1 false)
  store i8 24, ptr %242, align 8, !tbaa !2
  %243 = bitcast ptr %27 to ptr
  %244 = getelementptr inbounds %"struct.std::__1::basic_string<char, std::__1::char_traits<char>, std::__1::allocator<char> >::__short", ptr %243, i64 0, i32 1, i64 0
  call void @llvm.memcpy.p0.p0.i64(ptr align 1 %244, ptr align 1 @.str.16, i64 12, i1 false)
  %245 = getelementptr inbounds %"struct.std::__1::basic_string<char, std::__1::char_traits<char>, std::__1::allocator<char> >::__short", ptr %243, i64 0, i32 1, i64 12
  store i8 0, ptr %245, align 1, !tbaa !2
  %246 = bitcast ptr %28 to ptr
  call void @llvm.lifetime.start.p0(i64 24, ptr nonnull %246)
  call void @llvm.memset.p0.i64(ptr align 16 %246, i8 0, i64 24, i1 false)
  %247 = invoke ptr @_Znwm(i64 32)
          to label %248 unwind label %523

248:                                              ; preds = %235
  %249 = getelementptr inbounds %"class.std::__1::basic_string", ptr %28, i64 0, i32 0, i32 0, i32 0, i32 0, i32 0, i32 2
  store ptr %247, ptr %249, align 16, !tbaa !5
  %250 = bitcast ptr %28 to ptr
  store <2 x i64> <i64 33, i64 24>, ptr %250, align 16, !tbaa !9
  call void @llvm.memcpy.p0.p0.i64(ptr align 1 %247, ptr align 1 @.str.17, i64 24, i1 false)
  %251 = getelementptr inbounds i8, ptr %247, i64 24
  store i8 0, ptr %251, align 1, !tbaa !2
  %252 = getelementptr inbounds %"class.google::protobuf::compiler::csharp::Generator", ptr %25, i64 0, i32 0
  invoke void @_ZN6google8protobuf8compiler20CommandLineInterface17RegisterGeneratorERKNSt3__112basic_stringIcNS3_11char_traitsIcEENS3_9allocatorIcEEEESB_PNS1_13CodeGeneratorESB_(ptr nonnull %3, ptr nonnull dereferenceable(24) %26, ptr nonnull dereferenceable(24) %27, ptr nonnull %252, ptr nonnull dereferenceable(24) %28)
          to label %253 unwind label %527

253:                                              ; preds = %248
  %254 = load i8, ptr %246, align 16, !tbaa !2
  %255 = and i8 %254, 1
  %256 = icmp eq i8 %255, 0
  br i1 %256, label %259, label %257

257:                                              ; preds = %253
  %258 = load ptr, ptr %249, align 16, !tbaa !5
  call void @_ZdlPv(ptr %258)
  br label %259

259:                                              ; preds = %257, %253
  call void @llvm.lifetime.end.p0(i64 24, ptr nonnull %246)
  %260 = load i8, ptr %242, align 8, !tbaa !2
  %261 = and i8 %260, 1
  %262 = icmp eq i8 %261, 0
  br i1 %262, label %266, label %263

263:                                              ; preds = %259
  %264 = getelementptr inbounds %"class.std::__1::basic_string", ptr %27, i64 0, i32 0, i32 0, i32 0, i32 0, i32 0, i32 2
  %265 = load ptr, ptr %264, align 8, !tbaa !5
  call void @_ZdlPv(ptr %265)
  br label %266

266:                                              ; preds = %263, %259
  call void @llvm.lifetime.end.p0(i64 24, ptr nonnull %242)
  %267 = load i8, ptr %238, align 8, !tbaa !2
  %268 = and i8 %267, 1
  %269 = icmp eq i8 %268, 0
  br i1 %269, label %273, label %270

270:                                              ; preds = %266
  %271 = getelementptr inbounds %"class.std::__1::basic_string", ptr %26, i64 0, i32 0, i32 0, i32 0, i32 0, i32 0, i32 2
  %272 = load ptr, ptr %271, align 8, !tbaa !5
  call void @_ZdlPv(ptr %272)
  br label %273

273:                                              ; preds = %270, %266
  call void @llvm.lifetime.end.p0(i64 24, ptr nonnull %238)
  %274 = bitcast ptr %29 to ptr
  call void @llvm.lifetime.start.p0(i64 8, ptr nonnull %274)
  invoke void @_ZN6google8protobuf8compiler10objectivec19ObjectiveCGeneratorC1Ev(ptr nonnull %29)
          to label %275 unwind label %554

275:                                              ; preds = %273
  %276 = bitcast ptr %30 to ptr
  call void @llvm.lifetime.start.p0(i64 24, ptr nonnull %276)
  call void @llvm.memset.p0.i64(ptr align 8 %276, i8 0, i64 24, i1 false)
  store i8 20, ptr %276, align 8, !tbaa !2
  %277 = bitcast ptr %30 to ptr
  %278 = getelementptr inbounds %"struct.std::__1::basic_string<char, std::__1::char_traits<char>, std::__1::allocator<char> >::__short", ptr %277, i64 0, i32 1, i64 0
  call void @llvm.memcpy.p0.p0.i64(ptr align 1 %278, ptr align 1 @.str.18, i64 10, i1 false)
  %279 = getelementptr inbounds %"struct.std::__1::basic_string<char, std::__1::char_traits<char>, std::__1::allocator<char> >::__short", ptr %277, i64 0, i32 1, i64 10
  store i8 0, ptr %279, align 1, !tbaa !2
  %280 = bitcast ptr %31 to ptr
  call void @llvm.lifetime.start.p0(i64 24, ptr nonnull %280)
  call void @llvm.memset.p0.i64(ptr align 8 %280, i8 0, i64 24, i1 false)
  store i8 20, ptr %280, align 8, !tbaa !2
  %281 = bitcast ptr %31 to ptr
  %282 = getelementptr inbounds %"struct.std::__1::basic_string<char, std::__1::char_traits<char>, std::__1::allocator<char> >::__short", ptr %281, i64 0, i32 1, i64 0
  call void @llvm.memcpy.p0.p0.i64(ptr align 1 %282, ptr align 1 @.str.19, i64 10, i1 false)
  %283 = getelementptr inbounds %"struct.std::__1::basic_string<char, std::__1::char_traits<char>, std::__1::allocator<char> >::__short", ptr %281, i64 0, i32 1, i64 10
  store i8 0, ptr %283, align 1, !tbaa !2
  %284 = bitcast ptr %32 to ptr
  call void @llvm.lifetime.start.p0(i64 24, ptr nonnull %284)
  call void @llvm.memset.p0.i64(ptr align 16 %284, i8 0, i64 24, i1 false)
  %285 = invoke ptr @_Znwm(i64 48)
          to label %286 unwind label %558

286:                                              ; preds = %275
  %287 = getelementptr inbounds %"class.std::__1::basic_string", ptr %32, i64 0, i32 0, i32 0, i32 0, i32 0, i32 0, i32 2
  store ptr %285, ptr %287, align 16, !tbaa !5
  %288 = bitcast ptr %32 to ptr
  store <2 x i64> <i64 49, i64 39>, ptr %288, align 16, !tbaa !9
  call void @llvm.memcpy.p0.p0.i64(ptr align 1 %285, ptr align 1 @.str.20, i64 39, i1 false)
  %289 = getelementptr inbounds i8, ptr %285, i64 39
  store i8 0, ptr %289, align 1, !tbaa !2
  %290 = getelementptr inbounds %"class.google::protobuf::compiler::objectivec::ObjectiveCGenerator", ptr %29, i64 0, i32 0
  invoke void @_ZN6google8protobuf8compiler20CommandLineInterface17RegisterGeneratorERKNSt3__112basic_stringIcNS3_11char_traitsIcEENS3_9allocatorIcEEEESB_PNS1_13CodeGeneratorESB_(ptr nonnull %3, ptr nonnull dereferenceable(24) %30, ptr nonnull dereferenceable(24) %31, ptr nonnull %290, ptr nonnull dereferenceable(24) %32)
          to label %291 unwind label %562

291:                                              ; preds = %286
  %292 = load i8, ptr %284, align 16, !tbaa !2
  %293 = and i8 %292, 1
  %294 = icmp eq i8 %293, 0
  br i1 %294, label %297, label %295

295:                                              ; preds = %291
  %296 = load ptr, ptr %287, align 16, !tbaa !5
  call void @_ZdlPv(ptr %296)
  br label %297

297:                                              ; preds = %295, %291
  call void @llvm.lifetime.end.p0(i64 24, ptr nonnull %284)
  %298 = load i8, ptr %280, align 8, !tbaa !2
  %299 = and i8 %298, 1
  %300 = icmp eq i8 %299, 0
  br i1 %300, label %304, label %301

301:                                              ; preds = %297
  %302 = getelementptr inbounds %"class.std::__1::basic_string", ptr %31, i64 0, i32 0, i32 0, i32 0, i32 0, i32 0, i32 2
  %303 = load ptr, ptr %302, align 8, !tbaa !5
  call void @_ZdlPv(ptr %303)
  br label %304

304:                                              ; preds = %301, %297
  call void @llvm.lifetime.end.p0(i64 24, ptr nonnull %280)
  %305 = load i8, ptr %276, align 8, !tbaa !2
  %306 = and i8 %305, 1
  %307 = icmp eq i8 %306, 0
  br i1 %307, label %311, label %308

308:                                              ; preds = %304
  %309 = getelementptr inbounds %"class.std::__1::basic_string", ptr %30, i64 0, i32 0, i32 0, i32 0, i32 0, i32 0, i32 2
  %310 = load ptr, ptr %309, align 8, !tbaa !5
  call void @_ZdlPv(ptr %310)
  br label %311

311:                                              ; preds = %308, %304
  call void @llvm.lifetime.end.p0(i64 24, ptr nonnull %276)
  %312 = bitcast ptr %33 to ptr
  call void @llvm.lifetime.start.p0(i64 8, ptr nonnull %312)
  %313 = getelementptr inbounds %"class.google::protobuf::compiler::js::Generator", ptr %33, i64 0, i32 0, i32 0
  store ptr getelementptr inbounds ({ [7 x ptr] }, ptr @_ZTVN6google8protobuf8compiler2js9GeneratorE, i64 0, inrange i32 0, i64 2), ptr %313, align 8, !tbaa !10
  %314 = bitcast ptr %34 to ptr
  call void @llvm.lifetime.start.p0(i64 24, ptr nonnull %314)
  call void @llvm.memset.p0.i64(ptr align 8 %314, i8 0, i64 24, i1 false)
  store i8 16, ptr %314, align 8, !tbaa !2
  %315 = bitcast ptr %34 to ptr
  %316 = getelementptr inbounds %"struct.std::__1::basic_string<char, std::__1::char_traits<char>, std::__1::allocator<char> >::__short", ptr %315, i64 0, i32 1, i64 0
  %317 = bitcast ptr %316 to ptr
  store i64 8391735936423701805, ptr %317, align 1
  %318 = getelementptr inbounds %"struct.std::__1::basic_string<char, std::__1::char_traits<char>, std::__1::allocator<char> >::__short", ptr %315, i64 0, i32 1, i64 8
  store i8 0, ptr %318, align 1, !tbaa !2
  %319 = bitcast ptr %35 to ptr
  call void @llvm.lifetime.start.p0(i64 24, ptr nonnull %319)
  call void @llvm.memset.p0.i64(ptr align 16 %319, i8 0, i64 24, i1 false)
  %320 = invoke ptr @_Znwm(i64 32)
          to label %321 unwind label %588

321:                                              ; preds = %311
  %322 = getelementptr inbounds %"class.std::__1::basic_string", ptr %35, i64 0, i32 0, i32 0, i32 0, i32 0, i32 0, i32 2
  store ptr %320, ptr %322, align 16, !tbaa !5
  %323 = bitcast ptr %35 to ptr
  store <2 x i64> <i64 33, i64 27>, ptr %323, align 16, !tbaa !9
  call void @llvm.memcpy.p0.p0.i64(ptr align 1 %320, ptr align 1 @.str.22, i64 27, i1 false)
  %324 = getelementptr inbounds i8, ptr %320, i64 27
  store i8 0, ptr %324, align 1, !tbaa !2
  %325 = getelementptr inbounds %"class.google::protobuf::compiler::js::Generator", ptr %33, i64 0, i32 0
  invoke void @_ZN6google8protobuf8compiler20CommandLineInterface17RegisterGeneratorERKNSt3__112basic_stringIcNS3_11char_traitsIcEENS3_9allocatorIcEEEEPNS1_13CodeGeneratorESB_(ptr nonnull %3, ptr nonnull dereferenceable(24) %34, ptr nonnull %325, ptr nonnull dereferenceable(24) %35)
          to label %326 unwind label %592

326:                                              ; preds = %321
  %327 = load i8, ptr %319, align 16, !tbaa !2
  %328 = and i8 %327, 1
  %329 = icmp eq i8 %328, 0
  br i1 %329, label %332, label %330

330:                                              ; preds = %326
  %331 = load ptr, ptr %322, align 16, !tbaa !5
  call void @_ZdlPv(ptr %331)
  br label %332

332:                                              ; preds = %330, %326
  call void @llvm.lifetime.end.p0(i64 24, ptr nonnull %319)
  %333 = load i8, ptr %314, align 8, !tbaa !2
  %334 = and i8 %333, 1
  %335 = icmp eq i8 %334, 0
  br i1 %335, label %339, label %336

336:                                              ; preds = %332
  %337 = getelementptr inbounds %"class.std::__1::basic_string", ptr %34, i64 0, i32 0, i32 0, i32 0, i32 0, i32 0, i32 2
  %338 = load ptr, ptr %337, align 8, !tbaa !5
  call void @_ZdlPv(ptr %338)
  br label %339

339:                                              ; preds = %336, %332
  call void @llvm.lifetime.end.p0(i64 24, ptr nonnull %314)
  %340 = invoke i32 @_ZN6google8protobuf8compiler20CommandLineInterface3RunEiPKPKc(ptr nonnull %3, i32 %0, ptr %1)
          to label %341 unwind label %612

341:                                              ; preds = %339
  call void @_ZN6google8protobuf8compiler13CodeGeneratorD2Ev(ptr nonnull %325)
  call void @llvm.lifetime.end.p0(i64 8, ptr nonnull %312)
  call void @_ZN6google8protobuf8compiler10objectivec19ObjectiveCGeneratorD1Ev(ptr nonnull %29)
  call void @llvm.lifetime.end.p0(i64 8, ptr nonnull %274)
  call void @_ZN6google8protobuf8compiler13CodeGeneratorD2Ev(ptr nonnull %252)
  call void @llvm.lifetime.end.p0(i64 8, ptr nonnull %236)
  call void @_ZN6google8protobuf8compiler13CodeGeneratorD2Ev(ptr nonnull %221)
  call void @llvm.lifetime.end.p0(i64 8, ptr nonnull %209)
  call void @_ZN6google8protobuf8compiler13CodeGeneratorD2Ev(ptr nonnull %194)
  call void @llvm.lifetime.end.p0(i64 8, ptr nonnull %182)
  call void @_ZN6google8protobuf8compiler8javanano17JavaNanoGeneratorD1Ev(ptr nonnull %16)
  call void @llvm.lifetime.end.p0(i64 8, ptr nonnull %153)
  call void @_ZN6google8protobuf8compiler6python9GeneratorD1Ev(ptr nonnull %13)
  call void @llvm.lifetime.end.p0(i64 56, ptr nonnull %126)
  call void @_ZN6google8protobuf8compiler4java13JavaGeneratorD1Ev(ptr nonnull %9)
  call void @llvm.lifetime.end.p0(i64 8, ptr nonnull %88)
  call void @_ZN6google8protobuf8compiler3cpp12CppGeneratorD1Ev(ptr nonnull %5)
  call void @llvm.lifetime.end.p0(i64 8, ptr nonnull %50)
  call void @_ZN6google8protobuf8compiler20CommandLineInterfaceD1Ev(ptr nonnull %3)
  call void @llvm.lifetime.end.p0(i64 464, ptr nonnull %36)
  ret i32 %340

342:                                              ; preds = %2
  %343 = landingpad { ptr, i32 }
          cleanup
  %344 = extractvalue { ptr, i32 } %343, 0
  %345 = extractvalue { ptr, i32 } %343, 1
  %346 = load i8, ptr %37, align 8, !tbaa !2
  %347 = and i8 %346, 1
  %348 = icmp eq i8 %347, 0
  br i1 %348, label %352, label %349

349:                                              ; preds = %342
  %350 = getelementptr inbounds %"class.std::__1::basic_string", ptr %4, i64 0, i32 0, i32 0, i32 0, i32 0, i32 0, i32 2
  %351 = load ptr, ptr %350, align 8, !tbaa !5
  call void @_ZdlPv(ptr %351)
  br label %352

352:                                              ; preds = %349, %342
  call void @llvm.lifetime.end.p0(i64 24, ptr nonnull %37)
  br label %662

353:                                              ; preds = %49
  %354 = landingpad { ptr, i32 }
          cleanup
  %355 = extractvalue { ptr, i32 } %354, 0
  %356 = extractvalue { ptr, i32 } %354, 1
  br label %659

357:                                              ; preds = %51
  %358 = landingpad { ptr, i32 }
          cleanup
  %359 = extractvalue { ptr, i32 } %358, 0
  %360 = extractvalue { ptr, i32 } %358, 1
  br label %370

361:                                              ; preds = %62
  %362 = landingpad { ptr, i32 }
          cleanup
  %363 = extractvalue { ptr, i32 } %362, 0
  %364 = extractvalue { ptr, i32 } %362, 1
  %365 = load i8, ptr %60, align 16, !tbaa !2
  %366 = and i8 %365, 1
  %367 = icmp eq i8 %366, 0
  br i1 %367, label %370, label %368

368:                                              ; preds = %361
  %369 = load ptr, ptr %63, align 16, !tbaa !5
  call void @_ZdlPv(ptr %369)
  br label %370

370:                                              ; preds = %368, %361, %357
  %371 = phi ptr [ %359, %357 ], [ %363, %361 ], [ %363, %368 ]
  %372 = phi i32 [ %360, %357 ], [ %364, %361 ], [ %364, %368 ]
  call void @llvm.lifetime.end.p0(i64 24, ptr nonnull %60)
  %373 = load i8, ptr %56, align 8, !tbaa !2
  %374 = and i8 %373, 1
  %375 = icmp eq i8 %374, 0
  br i1 %375, label %379, label %376

376:                                              ; preds = %370
  %377 = getelementptr inbounds %"class.std::__1::basic_string", ptr %7, i64 0, i32 0, i32 0, i32 0, i32 0, i32 0, i32 2
  %378 = load ptr, ptr %377, align 8, !tbaa !5
  call void @_ZdlPv(ptr %378)
  br label %379

379:                                              ; preds = %376, %370
  call void @llvm.lifetime.end.p0(i64 24, ptr nonnull %56)
  %380 = load i8, ptr %52, align 8, !tbaa !2
  %381 = and i8 %380, 1
  %382 = icmp eq i8 %381, 0
  br i1 %382, label %386, label %383

383:                                              ; preds = %379
  %384 = getelementptr inbounds %"class.std::__1::basic_string", ptr %6, i64 0, i32 0, i32 0, i32 0, i32 0, i32 0, i32 2
  %385 = load ptr, ptr %384, align 8, !tbaa !5
  call void @_ZdlPv(ptr %385)
  br label %386

386:                                              ; preds = %383, %379
  call void @llvm.lifetime.end.p0(i64 24, ptr nonnull %52)
  br label %656

387:                                              ; preds = %87
  %388 = landingpad { ptr, i32 }
          cleanup
  %389 = extractvalue { ptr, i32 } %388, 0
  %390 = extractvalue { ptr, i32 } %388, 1
  br label %653

391:                                              ; preds = %89
  %392 = landingpad { ptr, i32 }
          cleanup
  %393 = extractvalue { ptr, i32 } %392, 0
  %394 = extractvalue { ptr, i32 } %392, 1
  br label %404

395:                                              ; preds = %100
  %396 = landingpad { ptr, i32 }
          cleanup
  %397 = extractvalue { ptr, i32 } %396, 0
  %398 = extractvalue { ptr, i32 } %396, 1
  %399 = load i8, ptr %98, align 16, !tbaa !2
  %400 = and i8 %399, 1
  %401 = icmp eq i8 %400, 0
  br i1 %401, label %404, label %402

402:                                              ; preds = %395
  %403 = load ptr, ptr %101, align 16, !tbaa !5
  call void @_ZdlPv(ptr %403)
  br label %404

404:                                              ; preds = %402, %395, %391
  %405 = phi ptr [ %393, %391 ], [ %397, %395 ], [ %397, %402 ]
  %406 = phi i32 [ %394, %391 ], [ %398, %395 ], [ %398, %402 ]
  call void @llvm.lifetime.end.p0(i64 24, ptr nonnull %98)
  %407 = load i8, ptr %94, align 8, !tbaa !2
  %408 = and i8 %407, 1
  %409 = icmp eq i8 %408, 0
  br i1 %409, label %413, label %410

410:                                              ; preds = %404
  %411 = getelementptr inbounds %"class.std::__1::basic_string", ptr %11, i64 0, i32 0, i32 0, i32 0, i32 0, i32 0, i32 2
  %412 = load ptr, ptr %411, align 8, !tbaa !5
  call void @_ZdlPv(ptr %412)
  br label %413

413:                                              ; preds = %410, %404
  call void @llvm.lifetime.end.p0(i64 24, ptr nonnull %94)
  %414 = load i8, ptr %90, align 8, !tbaa !2
  %415 = and i8 %414, 1
  %416 = icmp eq i8 %415, 0
  br i1 %416, label %420, label %417

417:                                              ; preds = %413
  %418 = getelementptr inbounds %"class.std::__1::basic_string", ptr %10, i64 0, i32 0, i32 0, i32 0, i32 0, i32 0, i32 2
  %419 = load ptr, ptr %418, align 8, !tbaa !5
  call void @_ZdlPv(ptr %419)
  br label %420

420:                                              ; preds = %417, %413
  call void @llvm.lifetime.end.p0(i64 24, ptr nonnull %90)
  br label %650

421:                                              ; preds = %125
  %422 = landingpad { ptr, i32 }
          cleanup
  %423 = extractvalue { ptr, i32 } %422, 0
  %424 = extractvalue { ptr, i32 } %422, 1
  br label %647

425:                                              ; preds = %127
  %426 = landingpad { ptr, i32 }
          cleanup
  %427 = extractvalue { ptr, i32 } %426, 0
  %428 = extractvalue { ptr, i32 } %426, 1
  br label %438

429:                                              ; preds = %134
  %430 = landingpad { ptr, i32 }
          cleanup
  %431 = extractvalue { ptr, i32 } %430, 0
  %432 = extractvalue { ptr, i32 } %430, 1
  %433 = load i8, ptr %132, align 16, !tbaa !2
  %434 = and i8 %433, 1
  %435 = icmp eq i8 %434, 0
  br i1 %435, label %438, label %436

436:                                              ; preds = %429
  %437 = load ptr, ptr %135, align 16, !tbaa !5
  call void @_ZdlPv(ptr %437)
  br label %438

438:                                              ; preds = %436, %429, %425
  %439 = phi ptr [ %427, %425 ], [ %431, %429 ], [ %431, %436 ]
  %440 = phi i32 [ %428, %425 ], [ %432, %429 ], [ %432, %436 ]
  call void @llvm.lifetime.end.p0(i64 24, ptr nonnull %132)
  %441 = load i8, ptr %128, align 8, !tbaa !2
  %442 = and i8 %441, 1
  %443 = icmp eq i8 %442, 0
  br i1 %443, label %447, label %444

444:                                              ; preds = %438
  %445 = getelementptr inbounds %"class.std::__1::basic_string", ptr %14, i64 0, i32 0, i32 0, i32 0, i32 0, i32 0, i32 2
  %446 = load ptr, ptr %445, align 8, !tbaa !5
  call void @_ZdlPv(ptr %446)
  br label %447

447:                                              ; preds = %444, %438
  call void @llvm.lifetime.end.p0(i64 24, ptr nonnull %128)
  br label %644

448:                                              ; preds = %152
  %449 = landingpad { ptr, i32 }
          cleanup
  %450 = extractvalue { ptr, i32 } %449, 0
  %451 = extractvalue { ptr, i32 } %449, 1
  br label %641

452:                                              ; preds = %154
  %453 = landingpad { ptr, i32 }
          cleanup
  %454 = extractvalue { ptr, i32 } %453, 0
  %455 = extractvalue { ptr, i32 } %453, 1
  br label %465

456:                                              ; preds = %163
  %457 = landingpad { ptr, i32 }
          cleanup
  %458 = extractvalue { ptr, i32 } %457, 0
  %459 = extractvalue { ptr, i32 } %457, 1
  %460 = load i8, ptr %161, align 16, !tbaa !2
  %461 = and i8 %460, 1
  %462 = icmp eq i8 %461, 0
  br i1 %462, label %465, label %463

463:                                              ; preds = %456
  %464 = load ptr, ptr %164, align 16, !tbaa !5
  call void @_ZdlPv(ptr %464)
  br label %465

465:                                              ; preds = %463, %456, %452
  %466 = phi ptr [ %454, %452 ], [ %458, %456 ], [ %458, %463 ]
  %467 = phi i32 [ %455, %452 ], [ %459, %456 ], [ %459, %463 ]
  call void @llvm.lifetime.end.p0(i64 24, ptr nonnull %161)
  %468 = load i8, ptr %155, align 8, !tbaa !2
  %469 = and i8 %468, 1
  %470 = icmp eq i8 %469, 0
  br i1 %470, label %474, label %471

471:                                              ; preds = %465
  %472 = getelementptr inbounds %"class.std::__1::basic_string", ptr %17, i64 0, i32 0, i32 0, i32 0, i32 0, i32 0, i32 2
  %473 = load ptr, ptr %472, align 8, !tbaa !5
  call void @_ZdlPv(ptr %473)
  br label %474

474:                                              ; preds = %471, %465
  call void @llvm.lifetime.end.p0(i64 24, ptr nonnull %155)
  br label %638

475:                                              ; preds = %181
  %476 = landingpad { ptr, i32 }
          cleanup
  %477 = extractvalue { ptr, i32 } %476, 0
  %478 = extractvalue { ptr, i32 } %476, 1
  br label %488

479:                                              ; preds = %190
  %480 = landingpad { ptr, i32 }
          cleanup
  %481 = extractvalue { ptr, i32 } %480, 0
  %482 = extractvalue { ptr, i32 } %480, 1
  %483 = load i8, ptr %188, align 16, !tbaa !2
  %484 = and i8 %483, 1
  %485 = icmp eq i8 %484, 0
  br i1 %485, label %488, label %486

486:                                              ; preds = %479
  %487 = load ptr, ptr %191, align 16, !tbaa !5
  call void @_ZdlPv(ptr %487)
  br label %488

488:                                              ; preds = %486, %479, %475
  %489 = phi ptr [ %477, %475 ], [ %481, %479 ], [ %481, %486 ]
  %490 = phi i32 [ %478, %475 ], [ %482, %479 ], [ %482, %486 ]
  call void @llvm.lifetime.end.p0(i64 24, ptr nonnull %188)
  %491 = load i8, ptr %184, align 8, !tbaa !2
  %492 = and i8 %491, 1
  %493 = icmp eq i8 %492, 0
  br i1 %493, label %497, label %494

494:                                              ; preds = %488
  %495 = getelementptr inbounds %"class.std::__1::basic_string", ptr %20, i64 0, i32 0, i32 0, i32 0, i32 0, i32 0, i32 2
  %496 = load ptr, ptr %495, align 8, !tbaa !5
  call void @_ZdlPv(ptr %496)
  br label %497

497:                                              ; preds = %494, %488
  call void @llvm.lifetime.end.p0(i64 24, ptr nonnull %184)
  %498 = getelementptr inbounds %"class.google::protobuf::compiler::php::Generator", ptr %19, i64 0, i32 0
  br label %634

499:                                              ; preds = %208
  %500 = landingpad { ptr, i32 }
          cleanup
  %501 = extractvalue { ptr, i32 } %500, 0
  %502 = extractvalue { ptr, i32 } %500, 1
  br label %512

503:                                              ; preds = %217
  %504 = landingpad { ptr, i32 }
          cleanup
  %505 = extractvalue { ptr, i32 } %504, 0
  %506 = extractvalue { ptr, i32 } %504, 1
  %507 = load i8, ptr %215, align 16, !tbaa !2
  %508 = and i8 %507, 1
  %509 = icmp eq i8 %508, 0
  br i1 %509, label %512, label %510

510:                                              ; preds = %503
  %511 = load ptr, ptr %218, align 16, !tbaa !5
  call void @_ZdlPv(ptr %511)
  br label %512

512:                                              ; preds = %510, %503, %499
  %513 = phi ptr [ %501, %499 ], [ %505, %503 ], [ %505, %510 ]
  %514 = phi i32 [ %502, %499 ], [ %506, %503 ], [ %506, %510 ]
  call void @llvm.lifetime.end.p0(i64 24, ptr nonnull %215)
  %515 = load i8, ptr %211, align 8, !tbaa !2
  %516 = and i8 %515, 1
  %517 = icmp eq i8 %516, 0
  br i1 %517, label %521, label %518

518:                                              ; preds = %512
  %519 = getelementptr inbounds %"class.std::__1::basic_string", ptr %23, i64 0, i32 0, i32 0, i32 0, i32 0, i32 0, i32 2
  %520 = load ptr, ptr %519, align 8, !tbaa !5
  call void @_ZdlPv(ptr %520)
  br label %521

521:                                              ; preds = %518, %512
  call void @llvm.lifetime.end.p0(i64 24, ptr nonnull %211)
  %522 = getelementptr inbounds %"class.google::protobuf::compiler::ruby::Generator", ptr %22, i64 0, i32 0
  br label %630

523:                                              ; preds = %235
  %524 = landingpad { ptr, i32 }
          cleanup
  %525 = extractvalue { ptr, i32 } %524, 0
  %526 = extractvalue { ptr, i32 } %524, 1
  br label %536

527:                                              ; preds = %248
  %528 = landingpad { ptr, i32 }
          cleanup
  %529 = extractvalue { ptr, i32 } %528, 0
  %530 = extractvalue { ptr, i32 } %528, 1
  %531 = load i8, ptr %246, align 16, !tbaa !2
  %532 = and i8 %531, 1
  %533 = icmp eq i8 %532, 0
  br i1 %533, label %536, label %534

534:                                              ; preds = %527
  %535 = load ptr, ptr %249, align 16, !tbaa !5
  call void @_ZdlPv(ptr %535)
  br label %536

536:                                              ; preds = %534, %527, %523
  %537 = phi ptr [ %525, %523 ], [ %529, %527 ], [ %529, %534 ]
  %538 = phi i32 [ %526, %523 ], [ %530, %527 ], [ %530, %534 ]
  call void @llvm.lifetime.end.p0(i64 24, ptr nonnull %246)
  %539 = load i8, ptr %242, align 8, !tbaa !2
  %540 = and i8 %539, 1
  %541 = icmp eq i8 %540, 0
  br i1 %541, label %545, label %542

542:                                              ; preds = %536
  %543 = getelementptr inbounds %"class.std::__1::basic_string", ptr %27, i64 0, i32 0, i32 0, i32 0, i32 0, i32 0, i32 2
  %544 = load ptr, ptr %543, align 8, !tbaa !5
  call void @_ZdlPv(ptr %544)
  br label %545

545:                                              ; preds = %542, %536
  call void @llvm.lifetime.end.p0(i64 24, ptr nonnull %242)
  %546 = load i8, ptr %238, align 8, !tbaa !2
  %547 = and i8 %546, 1
  %548 = icmp eq i8 %547, 0
  br i1 %548, label %552, label %549

549:                                              ; preds = %545
  %550 = getelementptr inbounds %"class.std::__1::basic_string", ptr %26, i64 0, i32 0, i32 0, i32 0, i32 0, i32 0, i32 2
  %551 = load ptr, ptr %550, align 8, !tbaa !5
  call void @_ZdlPv(ptr %551)
  br label %552

552:                                              ; preds = %549, %545
  call void @llvm.lifetime.end.p0(i64 24, ptr nonnull %238)
  %553 = getelementptr inbounds %"class.google::protobuf::compiler::csharp::Generator", ptr %25, i64 0, i32 0
  br label %626

554:                                              ; preds = %273
  %555 = landingpad { ptr, i32 }
          cleanup
  %556 = extractvalue { ptr, i32 } %555, 0
  %557 = extractvalue { ptr, i32 } %555, 1
  br label %623

558:                                              ; preds = %275
  %559 = landingpad { ptr, i32 }
          cleanup
  %560 = extractvalue { ptr, i32 } %559, 0
  %561 = extractvalue { ptr, i32 } %559, 1
  br label %571

562:                                              ; preds = %286
  %563 = landingpad { ptr, i32 }
          cleanup
  %564 = extractvalue { ptr, i32 } %563, 0
  %565 = extractvalue { ptr, i32 } %563, 1
  %566 = load i8, ptr %284, align 16, !tbaa !2
  %567 = and i8 %566, 1
  %568 = icmp eq i8 %567, 0
  br i1 %568, label %571, label %569

569:                                              ; preds = %562
  %570 = load ptr, ptr %287, align 16, !tbaa !5
  call void @_ZdlPv(ptr %570)
  br label %571

571:                                              ; preds = %569, %562, %558
  %572 = phi ptr [ %560, %558 ], [ %564, %562 ], [ %564, %569 ]
  %573 = phi i32 [ %561, %558 ], [ %565, %562 ], [ %565, %569 ]
  call void @llvm.lifetime.end.p0(i64 24, ptr nonnull %284)
  %574 = load i8, ptr %280, align 8, !tbaa !2
  %575 = and i8 %574, 1
  %576 = icmp eq i8 %575, 0
  br i1 %576, label %580, label %577

577:                                              ; preds = %571
  %578 = getelementptr inbounds %"class.std::__1::basic_string", ptr %31, i64 0, i32 0, i32 0, i32 0, i32 0, i32 0, i32 2
  %579 = load ptr, ptr %578, align 8, !tbaa !5
  call void @_ZdlPv(ptr %579)
  br label %580

580:                                              ; preds = %577, %571
  call void @llvm.lifetime.end.p0(i64 24, ptr nonnull %280)
  %581 = load i8, ptr %276, align 8, !tbaa !2
  %582 = and i8 %581, 1
  %583 = icmp eq i8 %582, 0
  br i1 %583, label %587, label %584

584:                                              ; preds = %580
  %585 = getelementptr inbounds %"class.std::__1::basic_string", ptr %30, i64 0, i32 0, i32 0, i32 0, i32 0, i32 0, i32 2
  %586 = load ptr, ptr %585, align 8, !tbaa !5
  call void @_ZdlPv(ptr %586)
  br label %587

587:                                              ; preds = %584, %580
  call void @llvm.lifetime.end.p0(i64 24, ptr nonnull %276)
  br label %620

588:                                              ; preds = %311
  %589 = landingpad { ptr, i32 }
          cleanup
  %590 = extractvalue { ptr, i32 } %589, 0
  %591 = extractvalue { ptr, i32 } %589, 1
  br label %601

592:                                              ; preds = %321
  %593 = landingpad { ptr, i32 }
          cleanup
  %594 = extractvalue { ptr, i32 } %593, 0
  %595 = extractvalue { ptr, i32 } %593, 1
  %596 = load i8, ptr %319, align 16, !tbaa !2
  %597 = and i8 %596, 1
  %598 = icmp eq i8 %597, 0
  br i1 %598, label %601, label %599

599:                                              ; preds = %592
  %600 = load ptr, ptr %322, align 16, !tbaa !5
  call void @_ZdlPv(ptr %600)
  br label %601

601:                                              ; preds = %599, %592, %588
  %602 = phi ptr [ %590, %588 ], [ %594, %592 ], [ %594, %599 ]
  %603 = phi i32 [ %591, %588 ], [ %595, %592 ], [ %595, %599 ]
  call void @llvm.lifetime.end.p0(i64 24, ptr nonnull %319)
  %604 = load i8, ptr %314, align 8, !tbaa !2
  %605 = and i8 %604, 1
  %606 = icmp eq i8 %605, 0
  br i1 %606, label %610, label %607

607:                                              ; preds = %601
  %608 = getelementptr inbounds %"class.std::__1::basic_string", ptr %34, i64 0, i32 0, i32 0, i32 0, i32 0, i32 0, i32 2
  %609 = load ptr, ptr %608, align 8, !tbaa !5
  call void @_ZdlPv(ptr %609)
  br label %610

610:                                              ; preds = %607, %601
  call void @llvm.lifetime.end.p0(i64 24, ptr nonnull %314)
  %611 = getelementptr inbounds %"class.google::protobuf::compiler::js::Generator", ptr %33, i64 0, i32 0
  br label %616

612:                                              ; preds = %339
  %613 = landingpad { ptr, i32 }
          cleanup
  %614 = extractvalue { ptr, i32 } %613, 0
  %615 = extractvalue { ptr, i32 } %613, 1
  br label %616

616:                                              ; preds = %612, %610
  %617 = phi ptr [ %611, %610 ], [ %325, %612 ]
  %618 = phi ptr [ %602, %610 ], [ %614, %612 ]
  %619 = phi i32 [ %603, %610 ], [ %615, %612 ]
  call void @_ZN6google8protobuf8compiler13CodeGeneratorD2Ev(ptr nonnull %617)
  call void @llvm.lifetime.end.p0(i64 8, ptr nonnull %312)
  br label %620

620:                                              ; preds = %616, %587
  %621 = phi ptr [ %618, %616 ], [ %572, %587 ]
  %622 = phi i32 [ %619, %616 ], [ %573, %587 ]
  call void @_ZN6google8protobuf8compiler10objectivec19ObjectiveCGeneratorD1Ev(ptr nonnull %29)
  br label %623

623:                                              ; preds = %620, %554
  %624 = phi ptr [ %621, %620 ], [ %556, %554 ]
  %625 = phi i32 [ %622, %620 ], [ %557, %554 ]
  call void @llvm.lifetime.end.p0(i64 8, ptr nonnull %274)
  br label %626

626:                                              ; preds = %623, %552
  %627 = phi ptr [ %553, %552 ], [ %252, %623 ]
  %628 = phi ptr [ %537, %552 ], [ %624, %623 ]
  %629 = phi i32 [ %538, %552 ], [ %625, %623 ]
  call void @_ZN6google8protobuf8compiler13CodeGeneratorD2Ev(ptr nonnull %627)
  call void @llvm.lifetime.end.p0(i64 8, ptr nonnull %236)
  br label %630

630:                                              ; preds = %626, %521
  %631 = phi ptr [ %522, %521 ], [ %221, %626 ]
  %632 = phi ptr [ %513, %521 ], [ %628, %626 ]
  %633 = phi i32 [ %514, %521 ], [ %629, %626 ]
  call void @_ZN6google8protobuf8compiler13CodeGeneratorD2Ev(ptr nonnull %631)
  call void @llvm.lifetime.end.p0(i64 8, ptr nonnull %209)
  br label %634

634:                                              ; preds = %630, %497
  %635 = phi ptr [ %498, %497 ], [ %194, %630 ]
  %636 = phi ptr [ %489, %497 ], [ %632, %630 ]
  %637 = phi i32 [ %490, %497 ], [ %633, %630 ]
  call void @_ZN6google8protobuf8compiler13CodeGeneratorD2Ev(ptr nonnull %635)
  call void @llvm.lifetime.end.p0(i64 8, ptr nonnull %182)
  br label %638

638:                                              ; preds = %634, %474
  %639 = phi ptr [ %636, %634 ], [ %466, %474 ]
  %640 = phi i32 [ %637, %634 ], [ %467, %474 ]
  call void @_ZN6google8protobuf8compiler8javanano17JavaNanoGeneratorD1Ev(ptr nonnull %16)
  br label %641

641:                                              ; preds = %638, %448
  %642 = phi ptr [ %639, %638 ], [ %450, %448 ]
  %643 = phi i32 [ %640, %638 ], [ %451, %448 ]
  call void @llvm.lifetime.end.p0(i64 8, ptr nonnull %153)
  br label %644

644:                                              ; preds = %641, %447
  %645 = phi ptr [ %642, %641 ], [ %439, %447 ]
  %646 = phi i32 [ %643, %641 ], [ %440, %447 ]
  call void @_ZN6google8protobuf8compiler6python9GeneratorD1Ev(ptr nonnull %13)
  br label %647

647:                                              ; preds = %644, %421
  %648 = phi ptr [ %645, %644 ], [ %423, %421 ]
  %649 = phi i32 [ %646, %644 ], [ %424, %421 ]
  call void @llvm.lifetime.end.p0(i64 56, ptr nonnull %126)
  br label %650

650:                                              ; preds = %647, %420
  %651 = phi ptr [ %648, %647 ], [ %405, %420 ]
  %652 = phi i32 [ %649, %647 ], [ %406, %420 ]
  call void @_ZN6google8protobuf8compiler4java13JavaGeneratorD1Ev(ptr nonnull %9)
  br label %653

653:                                              ; preds = %650, %387
  %654 = phi ptr [ %651, %650 ], [ %389, %387 ]
  %655 = phi i32 [ %652, %650 ], [ %390, %387 ]
  call void @llvm.lifetime.end.p0(i64 8, ptr nonnull %88)
  br label %656

656:                                              ; preds = %653, %386
  %657 = phi ptr [ %654, %653 ], [ %371, %386 ]
  %658 = phi i32 [ %655, %653 ], [ %372, %386 ]
  call void @_ZN6google8protobuf8compiler3cpp12CppGeneratorD1Ev(ptr nonnull %5)
  br label %659

659:                                              ; preds = %656, %353
  %660 = phi ptr [ %657, %656 ], [ %355, %353 ]
  %661 = phi i32 [ %658, %656 ], [ %356, %353 ]
  call void @llvm.lifetime.end.p0(i64 8, ptr nonnull %50)
  br label %662

662:                                              ; preds = %659, %352
  %663 = phi ptr [ %660, %659 ], [ %344, %352 ]
  %664 = phi i32 [ %661, %659 ], [ %345, %352 ]
  call void @_ZN6google8protobuf8compiler20CommandLineInterfaceD1Ev(ptr nonnull %3)
  call void @llvm.lifetime.end.p0(i64 464, ptr nonnull %36)
  %665 = insertvalue { ptr, i32 } undef, ptr %663, 0
  %666 = insertvalue { ptr, i32 } %665, i32 %664, 1
  resume { ptr, i32 } %666
}

declare void @_ZN6google8protobuf8compiler20CommandLineInterfaceC1Ev(ptr) unnamed_addr

declare void @_ZN6google8protobuf8compiler20CommandLineInterface12AllowPluginsERKNSt3__112basic_stringIcNS3_11char_traitsIcEENS3_9allocatorIcEEEE(ptr, ptr dereferenceable(24)) local_unnamed_addr

declare i32 @__gxx_personality_v0(...)

declare void @_ZN6google8protobuf8compiler3cpp12CppGeneratorC1Ev(ptr) unnamed_addr

declare void @_ZN6google8protobuf8compiler20CommandLineInterface17RegisterGeneratorERKNSt3__112basic_stringIcNS3_11char_traitsIcEENS3_9allocatorIcEEEESB_PNS1_13CodeGeneratorESB_(ptr, ptr dereferenceable(24), ptr dereferenceable(24), ptr, ptr dereferenceable(24)) local_unnamed_addr

declare void @_ZN6google8protobuf8compiler4java13JavaGeneratorC1Ev(ptr) unnamed_addr

declare void @_ZN6google8protobuf8compiler6python9GeneratorC1Ev(ptr) unnamed_addr

declare void @_ZN6google8protobuf8compiler20CommandLineInterface17RegisterGeneratorERKNSt3__112basic_stringIcNS3_11char_traitsIcEENS3_9allocatorIcEEEEPNS1_13CodeGeneratorESB_(ptr, ptr dereferenceable(24), ptr, ptr dereferenceable(24)) local_unnamed_addr

declare void @_ZN6google8protobuf8compiler8javanano17JavaNanoGeneratorC1Ev(ptr) unnamed_addr

declare void @_ZN6google8protobuf8compiler10objectivec19ObjectiveCGeneratorC1Ev(ptr) unnamed_addr

declare i32 @_ZN6google8protobuf8compiler20CommandLineInterface3RunEiPKPKc(ptr, i32, ptr) local_unnamed_addr

declare void @_ZN6google8protobuf8compiler10objectivec19ObjectiveCGeneratorD1Ev(ptr) unnamed_addr

declare void @_ZN6google8protobuf8compiler8javanano17JavaNanoGeneratorD1Ev(ptr) unnamed_addr

declare void @_ZN6google8protobuf8compiler6python9GeneratorD1Ev(ptr) unnamed_addr

declare void @_ZN6google8protobuf8compiler4java13JavaGeneratorD1Ev(ptr) unnamed_addr

declare void @_ZN6google8protobuf8compiler3cpp12CppGeneratorD1Ev(ptr) unnamed_addr

declare void @_ZN6google8protobuf8compiler20CommandLineInterfaceD1Ev(ptr) unnamed_addr

declare void @_ZN6google8protobuf8compiler13CodeGeneratorD2Ev(ptr) unnamed_addr

declare void @_ZdlPv(ptr) local_unnamed_addr

declare noalias nonnull ptr @_Znwm(i64) local_unnamed_addr

; Function Attrs: nocallback nofree nosync nounwind willreturn memory(argmem: readwrite)
declare void @llvm.lifetime.start.p0(i64 immarg, ptr nocapture) #0

; Function Attrs: nocallback nofree nosync nounwind willreturn memory(argmem: readwrite)
declare void @llvm.lifetime.end.p0(i64 immarg, ptr nocapture) #0

; Function Attrs: nocallback nofree nounwind willreturn memory(argmem: write)
declare void @llvm.memset.p0.i64(ptr nocapture writeonly, i8, i64, i1 immarg) #1

; Function Attrs: nocallback nofree nounwind willreturn memory(argmem: readwrite)
declare void @llvm.memcpy.p0.p0.i64(ptr noalias nocapture writeonly, ptr noalias nocapture readonly, i64, i1 immarg) #2

attributes #0 = { nocallback nofree nosync nounwind willreturn memory(argmem: readwrite) }
attributes #1 = { nocallback nofree nounwind willreturn memory(argmem: write) }
attributes #2 = { nocallback nofree nounwind willreturn memory(argmem: readwrite) }

!llvm.module.flags = !{!0}
!llvm.ident = !{!1}

!0 = !{i32 8, !"PIC Level", i32 2}
!1 = !{!"Apple LLVM version 9.0.0 (clang-900.0.39.2)"}
!2 = !{!3, !3, i64 0}
!3 = !{!"omnipotent char", !4, i64 0}
!4 = !{!"Simple C++ TBAA"}
!5 = !{!6, !8, i64 16}
!6 = !{!"_ZTSNSt3__112basic_stringIcNS_11char_traitsIcEENS_9allocatorIcEEE6__longE", !7, i64 0, !7, i64 8, !8, i64 16}
!7 = !{!"long", !3, i64 0}
!8 = !{!"any pointer", !3, i64 0}
!9 = !{!7, !7, i64 0}
!10 = !{!11, !11, i64 0}
!11 = !{!"vtable pointer", !4, i64 0}
